; Function Attrs: mustprogress uwtable
define hidden void @_ZNK13hilbert_basis7displayERSoRKNS_6valuesE(ptr nocapture noundef nonnull readonly align 8 dereferenceable(127) %this, ptr noundef nonnull align 8 dereferenceable(8) %out, ptr nocapture noundef nonnull readonly align 8 dereferenceable(8) %v) local_unnamed_addr #3 align 2 {
entry:
  %m_ineqs.i = getelementptr inbounds i8, ptr %this, i64 8
  %0 = load ptr, ptr %m_ineqs.i, align 8
  %cmp.i.i = icmp eq ptr %0, null
  br i1 %cmp.i.i, label %for.end, label %_ZNK6vectorIS_I13checked_int64ILb1EELb1EjELb1EjE5emptyEv.exit.i

_ZNK6vectorIS_I13checked_int64ILb1EELb1EjELb1EjE5emptyEv.exit.i: ; preds = %entry
  %arrayidx.i.i = getelementptr inbounds i8, ptr %0, i64 -4
  %1 = load i32, ptr %arrayidx.i.i, align 4
  %cmp3.i.i = icmp eq i32 %1, 0
  br i1 %cmp3.i.i, label %for.end, label %_ZNK6vectorIS_I13checked_int64ILb1EELb1EjELb1EjE4backEv.exit.i

_ZNK6vectorIS_I13checked_int64ILb1EELb1EjELb1EjE4backEv.exit.i: ; preds = %_ZNK6vectorIS_I13checked_int64ILb1EELb1EjELb1EjE5emptyEv.exit.i
  %2 = add i32 %1, -1
  %3 = zext i32 %2 to i64
  %arrayidx.i1.i.i = getelementptr inbounds %class.vector.1, ptr %0, i64 %3
  %4 = load ptr, ptr %arrayidx.i1.i.i, align 8
  %cmp.i1.i = icmp eq ptr %4, null
  br i1 %cmp.i1.i, label %for.end, label %_ZNK13hilbert_basis12get_num_varsEv.exit

_ZNK13hilbert_basis12get_num_varsEv.exit:         ; preds = %_ZNK6vectorIS_I13checked_int64ILb1EELb1EjELb1EjE4backEv.exit.i
  %arrayidx.i2.i = getelementptr inbounds i8, ptr %4, i64 -4
  %5 = load i32, ptr %arrayidx.i2.i, align 4
  %cmp3.not = icmp eq i32 %5, 0
  br i1 %cmp3.not, label %for.end, label %for.body.preheader

for.body.preheader:                               ; preds = %_ZNK13hilbert_basis12get_num_varsEv.exit
  %wide.trip.count = zext i32 %5 to i64
  br label %for.body

for.body:                                         ; preds = %for.body.preheader, %for.body
  %indvars.iv = phi i64 [ 0, %for.body.preheader ], [ %indvars.iv.next, %for.body ]
  %6 = load ptr, ptr %v, align 8
  %arrayidx.i = getelementptr inbounds %class.checked_int64, ptr %6, i64 %indvars.iv
  %7 = load i64, ptr %arrayidx.i, align 8
  %call.i = tail call noundef nonnull align 8 dereferenceable(8) ptr @_ZNSolsEl(ptr noundef nonnull align 8 dereferenceable(8) %out, i64 noundef %7)
  %call4 = tail call noundef nonnull align 8 dereferenceable(8) ptr @_ZStlsISt11char_traitsIcEERSt13basic_ostreamIcT_ES5_PKc(ptr noundef nonnull align 8 dereferenceable(8) %call.i, ptr noundef nonnull @.str.14)
  %indvars.iv.next = add nuw nsw i64 %indvars.iv, 1
  %exitcond.not = icmp eq i64 %indvars.iv.next, %wide.trip.count
  br i1 %exitcond.not, label %for.end, label %for.body, !llvm.loop !74

for.end:                                          ; preds = %for.body, %entry, %_ZNK6vectorIS_I13checked_int64ILb1EELb1EjELb1EjE4backEv.exit.i, %_ZNK6vectorIS_I13checked_int64ILb1EELb1EjELb1EjE5emptyEv.exit.i, %_ZNK13hilbert_basis12get_num_varsEv.exit
  ret void
}